target datalayout = "e-m:e-p270:32:32-p271:32:32-p272:64:64-i64:64-i128:128-f80:128-n8:16:32:64-S128"
target triple = "x86_64-pc-linux-gnu"

%struct.pmix_lock_t = type { i32, %struct.pmix_mutex_t, %union.pthread_cond_t, i8 }
%struct.pmix_mutex_t = type { %struct.pmix_object_t, %union.pthread_mutex_t }
%struct.pmix_object_t = type { %union.pthread_mutex_t, ptr, i32, %struct.pmix_tma }
%struct.pmix_tma = type { ptr, ptr, ptr, ptr, ptr, ptr, ptr, ptr }
%union.pthread_mutex_t = type { %struct.__pthread_mutex_s }
%struct.__pthread_mutex_s = type { i32, i32, i32, i32, i32, i16, i16, %struct.__pthread_internal_list }
%struct.__pthread_internal_list = type { ptr, ptr }
%union.pthread_cond_t = type { %struct.__pthread_cond_s }
%struct.__pthread_cond_s = type { %union.__atomic_wide_counter, %union.__atomic_wide_counter, [2 x i32], [2 x i32], i32, i32, [2 x i32] }
%union.__atomic_wide_counter = type { i64 }
%struct.pmix_proc = type { [256 x i8], i32 }
%struct.pmix_value = type { i16, %union.anon }
%union.anon = type { %struct.pmix_envar_t }
%struct.pmix_envar_t = type { ptr, ptr, i8 }
%struct.timeval = type { i64, i64 }
%struct.pmix_pointer_array_t = type { %struct.pmix_object_t, i32, i32, i32, i32, i32, ptr, ptr }
%struct.pmix_list_t = type { %struct.pmix_object_t, %struct.pmix_list_item_t, i64 }
%struct.pmix_list_item_t = type { %struct.pmix_object_t, ptr, ptr, i32 }
%struct.pmix_iof_flags_t = type { i8, i8, i8, i8, i8, i8, i8, ptr, ptr, i8, i8, i8, i8, i8, i8 }
%struct.pmix_client_globals_t = type { ptr, i8, %struct.pmix_list_t, %struct.pmix_pointer_array_t, %struct.pmix_list_t, i32, i32, i32, i32, i32, i32, i32, i32, i32, i32, i32, i32, i32, i32, i32, i32, %struct.pmix_iof_sink_t, %struct.pmix_iof_sink_t, i32, i32 }
%struct.pmix_iof_sink_t = type { %struct.pmix_list_item_t, %struct.pmix_proc, i16, %struct.pmix_iof_write_event_t, i8, i8, i8 }
%struct.pmix_iof_write_event_t = type { %struct.pmix_list_item_t, i8, i8, i32, ptr, %struct.timeval, i32, %struct.pmix_list_t }
%struct.pmix_cb_t = type { %struct.pmix_list_item_t, %struct.event, %struct.pmix_lock_t, i8, i32, i32, i8, %struct.pmix_buffer_t, %union.anon.9, i64, ptr, %struct.pmix_name_t, ptr, ptr, ptr, ptr, i64, ptr, i64, ptr, i8, i64, %struct.pmix_list_t, i8, ptr, i8, ptr, ptr }
%struct.event = type { %struct.event_callback, %union.anon.2, i32, ptr, %union.anon.4, i16, i16, %struct.timeval }
%struct.event_callback = type { %struct.anon.0, i16, i8, i8, %union.anon.1, ptr }
%struct.anon.0 = type { ptr, ptr }
%union.anon.1 = type { ptr }
%union.anon.2 = type { %struct.anon.3 }
%struct.anon.3 = type { ptr, ptr }
%union.anon.4 = type { %struct.anon.5 }
%struct.anon.5 = type { %struct.anon.6, %struct.timeval }
%struct.anon.6 = type { ptr, ptr }
%struct.pmix_buffer_t = type { %struct.pmix_object_t, i8, ptr, ptr, ptr, i64, i64 }
%union.anon.9 = type { ptr }
%struct.pmix_name_t = type { ptr, i32 }
%struct.pmix_peer_t = type { %struct.pmix_object_t, ptr, ptr, %struct.pmix_proc_type_t, i16, i32, i32, i32, i8, %struct.event, i8, %struct.event, i8, %struct.pmix_list_t, ptr, ptr, i32, %struct.pmix_epilog_t }
%struct.pmix_proc_type_t = type { i32, i8, i8, i8, i8 }
%struct.pmix_epilog_t = type { i32, i32, %struct.pmix_list_t, %struct.pmix_list_t, %struct.pmix_list_t }
%struct.pmix_namespace_t = type { %struct.pmix_list_item_t, ptr, %struct.anon.10, i32, i64, i64, i8, i8, ptr, i64, i64, %struct.pmix_list_t, %struct.pmix_personality_t, %struct.pmix_epilog_t, %struct.pmix_list_t, %struct.pmix_iof_flags_t, %struct.pmix_list_t }
%struct.anon.10 = type { i8, i8, i8 }
%struct.pmix_personality_t = type { i8, ptr, ptr, ptr }
%struct.pmix_bfrops_module_t = type { ptr, ptr, ptr, ptr, ptr, ptr, ptr, ptr, ptr, ptr, ptr, ptr, ptr }
%struct.pmix_pdata = type { %struct.pmix_proc, [512 x i8], %struct.pmix_value }

@pmix_client_globals = external global %struct.pmix_client_globals_t, align 8

; Function Attrs: inlinehint nounwind uwtable
define internal void @pmix_mutex_unlock(ptr noundef %0) #2 {
  %2 = alloca ptr, align 8
  store ptr %0, ptr %2, align 8, !tbaa !67
  %3 = load ptr, ptr %2, align 8, !tbaa !67
  %4 = getelementptr inbounds nuw %struct.pmix_mutex_t, ptr %3, i32 0, i32 1
  %5 = call i32 @pthread_mutex_unlock(ptr noundef %4) #11
  ret void
}

; Function Attrs: inlinehint nounwind uwtable
define internal void @pmix_mutex_lock(ptr noundef %0) #2 {
  %2 = alloca ptr, align 8
  store ptr %0, ptr %2, align 8, !tbaa !67
  %3 = load ptr, ptr %2, align 8, !tbaa !67
  %4 = getelementptr inbounds nuw %struct.pmix_mutex_t, ptr %3, i32 0, i32 1
  %5 = call i32 @pthread_mutex_lock(ptr noundef %4) #11
  ret void
}

; Function Attrs: inlinehint nounwind uwtable
define internal void @pmix_atomic_wmb() #2 {
  fence release
  ret void
}

; Function Attrs: inlinehint nounwind uwtable
define internal void @pmix_atomic_rmb() #2 {
  fence acquire
  ret void
}

; Function Attrs: nounwind uwtable
define internal void @lookup_cbfunc(i32 noundef %0, ptr noundef %1, i64 noundef %2, ptr noundef %3) #0 {
  %5 = alloca i32, align 4
  %6 = alloca ptr, align 8
  %7 = alloca i64, align 8
  %8 = alloca ptr, align 8
  %9 = alloca ptr, align 8
  %10 = alloca ptr, align 8
  %11 = alloca i64, align 8
  %12 = alloca i64, align 8
  store i32 %0, ptr %5, align 4, !tbaa !48
  store ptr %1, ptr %6, align 8, !tbaa !121
  store i64 %2, ptr %7, align 8, !tbaa !8
  store ptr %3, ptr %8, align 8, !tbaa !47
  call void @llvm.lifetime.start.p0(i64 8, ptr %9) #11
  %13 = load ptr, ptr %8, align 8, !tbaa !47
  store ptr %13, ptr %9, align 8, !tbaa !47
  call void @llvm.lifetime.start.p0(i64 8, ptr %10) #11
  %14 = load ptr, ptr %9, align 8, !tbaa !47
  %15 = getelementptr inbounds nuw %struct.pmix_cb_t, ptr %14, i32 0, i32 10
  %16 = load ptr, ptr %15, align 8, !tbaa !105
  store ptr %16, ptr %10, align 8, !tbaa !121
  call void @llvm.lifetime.start.p0(i64 8, ptr %11) #11
  call void @llvm.lifetime.start.p0(i64 8, ptr %12) #11
  call void @pmix_atomic_rmb()
  %17 = load i32, ptr %5, align 4, !tbaa !48
  %18 = load ptr, ptr %9, align 8, !tbaa !47
  %19 = getelementptr inbounds nuw %struct.pmix_cb_t, ptr %18, i32 0, i32 4
  store i32 %17, ptr %19, align 4, !tbaa !66
  %20 = load i32, ptr %5, align 4, !tbaa !48
  %21 = icmp eq i32 0, %20
  br i1 %21, label %25, label %22

22:                                               ; preds = %4
  %23 = load i32, ptr %5, align 4, !tbaa !48
  %24 = icmp eq i32 -52, %23
  br i1 %24, label %25, label %87

25:                                               ; preds = %22, %4
  store i64 0, ptr %11, align 8, !tbaa !8
  br label %26

26:                                               ; preds = %83, %25
  %27 = load i64, ptr %11, align 8, !tbaa !8
  %28 = load i64, ptr %7, align 8, !tbaa !8
  %29 = icmp ult i64 %27, %28
  br i1 %29, label %30, label %86

30:                                               ; preds = %26
  store i64 0, ptr %12, align 8, !tbaa !8
  br label %31

31:                                               ; preds = %79, %30
  %32 = load i64, ptr %12, align 8, !tbaa !8
  %33 = load ptr, ptr %9, align 8, !tbaa !47
  %34 = getelementptr inbounds nuw %struct.pmix_cb_t, ptr %33, i32 0, i32 21
  %35 = load i64, ptr %34, align 8, !tbaa !127
  %36 = icmp ult i64 %32, %35
  br i1 %36, label %37, label %82

37:                                               ; preds = %31
  %38 = load ptr, ptr %6, align 8, !tbaa !121
  %39 = load i64, ptr %11, align 8, !tbaa !8
  %40 = getelementptr inbounds nuw %struct.pmix_pdata, ptr %38, i64 %39
  %41 = getelementptr inbounds nuw %struct.pmix_pdata, ptr %40, i32 0, i32 1
  %42 = getelementptr inbounds [512 x i8], ptr %41, i64 0, i64 0
  %43 = load ptr, ptr %10, align 8, !tbaa !121
  %44 = load i64, ptr %12, align 8, !tbaa !8
  %45 = getelementptr inbounds nuw %struct.pmix_pdata, ptr %43, i64 %44
  %46 = getelementptr inbounds nuw %struct.pmix_pdata, ptr %45, i32 0, i32 1
  %47 = getelementptr inbounds [512 x i8], ptr %46, i64 0, i64 0
  %48 = call i32 @strcmp(ptr noundef %42, ptr noundef %47) #14
  %49 = icmp eq i32 0, %48
  br i1 %49, label %50, label %78

50:                                               ; preds = %37
  %51 = load ptr, ptr %10, align 8, !tbaa !121
  %52 = load i64, ptr %12, align 8, !tbaa !8
  %53 = getelementptr inbounds nuw %struct.pmix_pdata, ptr %51, i64 %52
  %54 = getelementptr inbounds nuw %struct.pmix_pdata, ptr %53, i32 0, i32 0
  %55 = load ptr, ptr %6, align 8, !tbaa !121
  %56 = load i64, ptr %11, align 8, !tbaa !8
  %57 = getelementptr inbounds nuw %struct.pmix_pdata, ptr %55, i64 %56
  %58 = getelementptr inbounds nuw %struct.pmix_pdata, ptr %57, i32 0, i32 0
  call void @llvm.memcpy.p0.p0.i64(ptr align 8 %54, ptr align 8 %58, i64 260, i1 false)
  %59 = load ptr, ptr @pmix_client_globals, align 8, !tbaa !86
  %60 = getelementptr inbounds nuw %struct.pmix_peer_t, ptr %59, i32 0, i32 1
  %61 = load ptr, ptr %60, align 8, !tbaa !91
  %62 = getelementptr inbounds nuw %struct.pmix_namespace_t, ptr %61, i32 0, i32 12
  %63 = getelementptr inbounds nuw %struct.pmix_personality_t, ptr %62, i32 0, i32 1
  %64 = load ptr, ptr %63, align 8, !tbaa !96
  %65 = getelementptr inbounds nuw %struct.pmix_bfrops_module_t, ptr %64, i32 0, i32 8
  %66 = load ptr, ptr %65, align 8, !tbaa !131
  %67 = load ptr, ptr %10, align 8, !tbaa !121
  %68 = load i64, ptr %12, align 8, !tbaa !8
  %69 = getelementptr inbounds nuw %struct.pmix_pdata, ptr %67, i64 %68
  %70 = getelementptr inbounds nuw %struct.pmix_pdata, ptr %69, i32 0, i32 2
  %71 = load ptr, ptr %6, align 8, !tbaa !121
  %72 = load i64, ptr %11, align 8, !tbaa !8
  %73 = getelementptr inbounds nuw %struct.pmix_pdata, ptr %71, i64 %72
  %74 = getelementptr inbounds nuw %struct.pmix_pdata, ptr %73, i32 0, i32 2
  %75 = call i32 %66(ptr noundef %70, ptr noundef %74)
  %76 = load ptr, ptr %9, align 8, !tbaa !47
  %77 = getelementptr inbounds nuw %struct.pmix_cb_t, ptr %76, i32 0, i32 4
  store i32 %75, ptr %77, align 4, !tbaa !66
  br label %82

78:                                               ; preds = %37
  br label %79

79:                                               ; preds = %78
  %80 = load i64, ptr %12, align 8, !tbaa !8
  %81 = add i64 %80, 1
  store i64 %81, ptr %12, align 8, !tbaa !8
  br label %31, !llvm.loop !132

82:                                               ; preds = %50, %31
  br label %83

83:                                               ; preds = %82
  %84 = load i64, ptr %11, align 8, !tbaa !8
  %85 = add i64 %84, 1
  store i64 %85, ptr %11, align 8, !tbaa !8
  br label %26, !llvm.loop !133

86:                                               ; preds = %26
  br label %87

87:                                               ; preds = %86, %22
  call void @pmix_atomic_wmb()
  br label %88

88:                                               ; preds = %87
  %89 = load ptr, ptr %9, align 8, !tbaa !47
  %90 = getelementptr inbounds nuw %struct.pmix_cb_t, ptr %89, i32 0, i32 2
  %91 = getelementptr inbounds nuw %struct.pmix_lock_t, ptr %90, i32 0, i32 1
  call void @pmix_mutex_lock(ptr noundef %91)
  %92 = load ptr, ptr %9, align 8, !tbaa !47
  %93 = getelementptr inbounds nuw %struct.pmix_cb_t, ptr %92, i32 0, i32 2
  %94 = getelementptr inbounds nuw %struct.pmix_lock_t, ptr %93, i32 0, i32 3
  store volatile i8 0, ptr %94, align 8, !tbaa !52
  call void @pmix_atomic_wmb()
  %95 = load ptr, ptr %9, align 8, !tbaa !47
  %96 = getelementptr inbounds nuw %struct.pmix_cb_t, ptr %95, i32 0, i32 2
  %97 = getelementptr inbounds nuw %struct.pmix_lock_t, ptr %96, i32 0, i32 2
  %98 = call i32 @pthread_cond_broadcast(ptr noundef %97) #11
  %99 = load ptr, ptr %9, align 8, !tbaa !47
  %100 = getelementptr inbounds nuw %struct.pmix_cb_t, ptr %99, i32 0, i32 2
  %101 = getelementptr inbounds nuw %struct.pmix_lock_t, ptr %100, i32 0, i32 1
  call void @pmix_mutex_unlock(ptr noundef %101)
  br label %102

102:                                              ; preds = %88
  br label %103

103:                                              ; preds = %102
  call void @llvm.lifetime.end.p0(i64 8, ptr %12) #11
  call void @llvm.lifetime.end.p0(i64 8, ptr %11) #11
  call void @llvm.lifetime.end.p0(i64 8, ptr %10) #11
  call void @llvm.lifetime.end.p0(i64 8, ptr %9) #11
  ret void
}