; Function Attrs: nounwind uwtable
define internal void @lookup_cbfunc(i32 noundef %0, ptr noundef %1, i64 noundef %2, ptr noundef initializes((500, 504)) %3) #0 {
  %5 = getelementptr inbounds nuw i8, ptr %3, i64 696
  %6 = load ptr, ptr %5, align 8, !tbaa !94
  fence acquire
  %7 = getelementptr inbounds nuw i8, ptr %3, i64 500
  store i32 %0, ptr %7, align 4, !tbaa !71
  switch i32 %0, label %.loopexit30 [
    i32 -52, label %8
    i32 0, label %8
  ]

8:                                                ; preds = %4, %4
  %.not = icmp eq i64 %2, 0
  br i1 %.not, label %.loopexit30, label %.preheader.lr.ph

.preheader.lr.ph:                                 ; preds = %8
  %9 = getelementptr inbounds nuw i8, ptr %3, i64 792
  %10 = load i64, ptr %9, align 8, !tbaa !110
  %.not35 = icmp eq i64 %10, 0
  br i1 %.not35, label %.loopexit30, label %.preheader

.preheaderthread-pre-split:                       ; preds = %.loopexit
  %.pr = load i64, ptr %9, align 8, !tbaa !110
  br label %.preheader

.preheader:                                       ; preds = %.preheader.lr.ph, %.preheaderthread-pre-split
  %11 = phi i64 [ %.pr, %.preheaderthread-pre-split ], [ %10, %.preheader.lr.ph ]
  %.02933 = phi i64 [ %32, %.preheaderthread-pre-split ], [ 0, %.preheader.lr.ph ]
  %.not36 = icmp eq i64 %11, 0
  br i1 %.not36, label %.loopexit, label %.lr.ph

.lr.ph:                                           ; preds = %.preheader
  %12 = getelementptr inbounds nuw %struct.pmix_pdata, ptr %1, i64 %.02933
  %13 = getelementptr inbounds nuw i8, ptr %12, i64 260
  br label %16

14:                                               ; preds = %16
  %15 = add nuw i64 %.032, 1
  %exitcond.not = icmp eq i64 %15, %11
  br i1 %exitcond.not, label %.loopexit, label %16, !llvm.loop !114

16:                                               ; preds = %.lr.ph, %14
  %.032 = phi i64 [ 0, %.lr.ph ], [ %15, %14 ]
  %17 = getelementptr inbounds nuw %struct.pmix_pdata, ptr %6, i64 %.032
  %18 = getelementptr inbounds nuw i8, ptr %17, i64 260
  %19 = tail call i32 @strcmp(ptr noundef nonnull dereferenceable(1) %13, ptr noundef nonnull dereferenceable(1) %18) #18
  %20 = icmp eq i32 %19, 0
  br i1 %20, label %21, label %14

21:                                               ; preds = %16
  tail call void @llvm.memcpy.p0.p0.i64(ptr noundef nonnull align 8 dereferenceable(260) %17, ptr noundef nonnull align 8 dereferenceable(260) %12, i64 260, i1 false)
  %22 = load ptr, ptr @pmix_client_globals, align 8, !tbaa !75
  %23 = getelementptr inbounds nuw i8, ptr %22, i64 120
  %24 = load ptr, ptr %23, align 8, !tbaa !80
  %25 = getelementptr inbounds nuw i8, ptr %24, i64 488
  %26 = load ptr, ptr %25, align 8, !tbaa !85
  %27 = getelementptr inbounds nuw i8, ptr %26, i64 64
  %28 = load ptr, ptr %27, align 8, !tbaa !115
  %29 = getelementptr inbounds nuw i8, ptr %17, i64 776
  %30 = getelementptr inbounds nuw i8, ptr %12, i64 776
  %31 = tail call i32 %28(ptr noundef nonnull %29, ptr noundef nonnull %30) #13
  store i32 %31, ptr %7, align 4, !tbaa !71
  br label %.loopexit

.loopexit:                                        ; preds = %14, %.preheader, %21
  %32 = add nuw i64 %.02933, 1
  %exitcond39.not = icmp eq i64 %32, %2
  br i1 %exitcond39.not, label %.loopexit30, label %.preheaderthread-pre-split, !llvm.loop !116

.loopexit30:                                      ; preds = %.loopexit, %.preheader.lr.ph, %8, %4
  fence release
  %33 = getelementptr inbounds nuw i8, ptr %3, i64 400
  %34 = tail call i32 @pthread_mutex_lock(ptr noundef nonnull %33) #13
  %35 = getelementptr inbounds nuw i8, ptr %3, i64 488
  store volatile i8 0, ptr %35, align 8, !tbaa !56
  fence release
  %36 = getelementptr inbounds nuw i8, ptr %3, i64 440
  %37 = tail call i32 @pthread_cond_broadcast(ptr noundef nonnull %36) #13
  %38 = tail call i32 @pthread_mutex_unlock(ptr noundef nonnull %33) #13
  ret void
}